target datalayout = "e-m:e-p270:32:32-p271:32:32-p272:64:64-i64:64-i128:128-f80:128-n8:16:32:64-S128"
target triple = "x86_64-pc-linux-gnu"

%struct.SDL_DriverSwitch_Context = type <{ ptr, ptr, i8, i8, i8, i8, i32, i8, [3 x i8], i32, i32, i8, i8, [6 x i8], i8, [3 x i8], i32, i8, i8, %struct.SwitchCommonOutputPacket_t, [64 x i8], i8, [7 x i8], i64, i8, i8, [2 x i8], i32, i8, i8, i8, [5 x i8], i64, i64, i64, i32, [4 x i8], i64, i64, i8, %struct.SwitchInputOnlyControllerStatePacket_t, %struct.SwitchSimpleStatePacket_t, %struct.SwitchStatePacket_t, i8, [2 x %struct.StickCalibrationData], [2 x %struct.StickExtents], [2 x %struct.StickExtents], %struct.IMUScaleData, [4 x i8] }>
%struct.SwitchCommonOutputPacket_t = type { i8, i8, [2 x %struct.SwitchRumbleData_t] }
%struct.SwitchRumbleData_t = type { [4 x i8] }
%struct.SwitchInputOnlyControllerStatePacket_t = type { [2 x i8], i8, [2 x i8], [2 x i8] }
%struct.SwitchSimpleStatePacket_t = type <{ [2 x i8], i8, [2 x i16], [2 x i16] }>
%struct.SwitchStatePacket_t = type { %struct.SwitchControllerStatePacket_t, [3 x %struct.anon] }
%struct.SwitchControllerStatePacket_t = type { i8, i8, [3 x i8], [3 x i8], [3 x i8], i8 }
%struct.anon = type { i16, i16, i16, i16, i16, i16 }
%struct.StickCalibrationData = type { [2 x %struct.anon.0] }
%struct.anon.0 = type { i16, i16, i16 }
%struct.StickExtents = type { [2 x %struct.anon.1] }
%struct.anon.1 = type { i16, i16 }
%struct.IMUScaleData = type { float, float, float, float, float, float }
%struct.SDL_HIDAPI_Device = type { ptr, ptr, ptr, ptr, i16, i16, i16, ptr, %struct.SDL_GUID, i32, i32, i32, i32, i16, i16, i8, i32, i32, i32, ptr, ptr, ptr, ptr, %struct.SDL_AtomicInt, i32, ptr, i8, i8, i8, ptr, i32, ptr, ptr }
%struct.SDL_GUID = type { [16 x i8] }
%struct.SDL_AtomicInt = type { i32 }

@.str.20 = private unnamed_addr constant [30 x i8] c"SDL_JOYSTICK_ENHANCED_REPORTS\00", align 1
@.str.22 = private unnamed_addr constant [36 x i8] c"SDL_JOYSTICK_HIDAPI_JOYCON_HOME_LED\00", align 1
@.str.23 = private unnamed_addr constant [36 x i8] c"SDL_JOYSTICK_HIDAPI_SWITCH_HOME_LED\00", align 1
@.str.24 = private unnamed_addr constant [38 x i8] c"SDL_JOYSTICK_HIDAPI_SWITCH_PLAYER_LED\00", align 1

; Function Attrs: nounwind uwtable
define internal zeroext i1 @SetInputMode(ptr noundef %0, i8 noundef zeroext %1) #0 {
  %3 = alloca i1, align 1
  %4 = alloca ptr, align 8
  %5 = alloca i8, align 1
  store ptr %0, ptr %4, align 8
  store i8 %1, ptr %5, align 1
  %6 = load i8, ptr %5, align 1
  %7 = zext i8 %6 to i32
  %8 = load ptr, ptr %4, align 8
  %9 = getelementptr inbounds nuw %struct.SDL_DriverSwitch_Context, ptr %8, i32 0, i32 12
  %10 = load i8, ptr %9, align 1
  %11 = zext i8 %10 to i32
  %12 = icmp eq i32 %7, %11
  br i1 %12, label %13, label %14

13:                                               ; preds = %2
  store i1 true, ptr %3, align 1
  br label %20

14:                                               ; preds = %2
  %15 = load i8, ptr %5, align 1
  %16 = load ptr, ptr %4, align 8
  %17 = getelementptr inbounds nuw %struct.SDL_DriverSwitch_Context, ptr %16, i32 0, i32 12
  store i8 %15, ptr %17, align 1
  %18 = load ptr, ptr %4, align 8
  %19 = call zeroext i1 @WriteSubcommand(ptr noundef %18, i32 noundef 3, ptr noundef %5, i8 noundef zeroext 1, ptr noundef null)
  store i1 %19, ptr %3, align 1
  br label %20

20:                                               ; preds = %14, %13
  %21 = load i1, ptr %3, align 1
  ret i1 %21
}

; Function Attrs: nounwind uwtable
define internal void @HIDAPI_DriverSwitch_CloseJoystick(ptr noundef %0, ptr noundef %1) #0 {
  %3 = alloca ptr, align 8
  %4 = alloca ptr, align 8
  %5 = alloca ptr, align 8
  store ptr %0, ptr %3, align 8
  store ptr %1, ptr %4, align 8
  call void @llvm.lifetime.start.p0(i64 8, ptr %5) #6
  %6 = load ptr, ptr %3, align 8
  %7 = getelementptr inbounds nuw %struct.SDL_HIDAPI_Device, ptr %6, i32 0, i32 20
  %8 = load ptr, ptr %7, align 8
  store ptr %8, ptr %5, align 8
  %9 = load ptr, ptr %5, align 8
  %10 = getelementptr inbounds nuw %struct.SDL_DriverSwitch_Context, ptr %9, i32 0, i32 2
  %11 = load i8, ptr %10, align 8, !range !3, !noundef !4
  %12 = trunc i8 %11 to i1
  br i1 %12, label %28, label %13

13:                                               ; preds = %2
  %14 = load ptr, ptr %5, align 8
  %15 = getelementptr inbounds nuw %struct.SDL_DriverSwitch_Context, ptr %14, i32 0, i32 11
  %16 = load i8, ptr %15, align 4
  %17 = icmp ne i8 %16, 0
  br i1 %17, label %18, label %24

18:                                               ; preds = %13
  %19 = load ptr, ptr %5, align 8
  %20 = getelementptr inbounds nuw %struct.SDL_DriverSwitch_Context, ptr %19, i32 0, i32 11
  %21 = load i8, ptr %20, align 4
  %22 = zext i8 %21 to i32
  %23 = icmp eq i32 %22, 63
  br i1 %23, label %24, label %27

24:                                               ; preds = %18, %13
  %25 = load ptr, ptr %5, align 8
  %26 = call zeroext i1 @SetInputMode(ptr noundef %25, i8 noundef zeroext 63)
  br label %27

27:                                               ; preds = %24, %18
  br label %28

28:                                               ; preds = %27, %2
  %29 = load ptr, ptr %5, align 8
  call void @SDL_RemoveHintCallback_REAL(ptr noundef @.str.20, ptr noundef @SDL_EnhancedReportsChanged, ptr noundef %29)
  %30 = load ptr, ptr %5, align 8
  %31 = getelementptr inbounds nuw %struct.SDL_DriverSwitch_Context, ptr %30, i32 0, i32 10
  %32 = load i32, ptr %31, align 8
  %33 = icmp eq i32 %32, 1
  br i1 %33, label %39, label %34

34:                                               ; preds = %28
  %35 = load ptr, ptr %5, align 8
  %36 = getelementptr inbounds nuw %struct.SDL_DriverSwitch_Context, ptr %35, i32 0, i32 10
  %37 = load i32, ptr %36, align 8
  %38 = icmp eq i32 %37, 2
  br i1 %38, label %39, label %41

39:                                               ; preds = %34, %28
  %40 = load ptr, ptr %5, align 8
  call void @SDL_RemoveHintCallback_REAL(ptr noundef @.str.22, ptr noundef @SDL_HomeLEDHintChanged, ptr noundef %40)
  br label %43

41:                                               ; preds = %34
  %42 = load ptr, ptr %5, align 8
  call void @SDL_RemoveHintCallback_REAL(ptr noundef @.str.23, ptr noundef @SDL_HomeLEDHintChanged, ptr noundef %42)
  br label %43

43:                                               ; preds = %41, %39
  %44 = load ptr, ptr %5, align 8
  call void @SDL_RemoveHintCallback_REAL(ptr noundef @.str.24, ptr noundef @SDL_PlayerLEDHintChanged, ptr noundef %44)
  %45 = load ptr, ptr %5, align 8
  %46 = getelementptr inbounds nuw %struct.SDL_DriverSwitch_Context, ptr %45, i32 0, i32 1
  store ptr null, ptr %46, align 8
  %47 = load ptr, ptr %5, align 8
  %48 = getelementptr inbounds nuw %struct.SDL_DriverSwitch_Context, ptr %47, i32 0, i32 29
  store i8 0, ptr %48, align 1
  %49 = load ptr, ptr %5, align 8
  %50 = getelementptr inbounds nuw %struct.SDL_DriverSwitch_Context, ptr %49, i32 0, i32 17
  store i8 0, ptr %50, align 4
  %51 = load ptr, ptr %5, align 8
  %52 = getelementptr inbounds nuw %struct.SDL_DriverSwitch_Context, ptr %51, i32 0, i32 18
  store i8 0, ptr %52, align 1
  call void @llvm.lifetime.end.p0(i64 8, ptr %5) #6
  ret void
}