; Function Attrs: nounwind uwtable
define internal void @HIDAPI_DriverSwitch_CloseJoystick(ptr noundef readonly captures(none) %0, ptr readnone captures(none) %1) #0 {
  %3 = alloca i8, align 1
  %4 = getelementptr inbounds nuw i8, ptr %0, i64 112
  %5 = load ptr, ptr %4, align 8
  %6 = getelementptr inbounds nuw i8, ptr %5, i64 16
  %7 = load i8, ptr %6, align 8, !range !3, !noundef !4
  %8 = trunc nuw i8 %7 to i1
  br i1 %8, label %18, label %9

9:                                                ; preds = %2
  %10 = getelementptr inbounds nuw i8, ptr %5, i64 36
  %11 = load i8, ptr %10, align 4
  switch i8 %11, label %18 [
    i8 0, label %12
    i8 63, label %12
  ]

12:                                               ; preds = %9, %9
  call void @llvm.lifetime.start.p0(i64 1, ptr nonnull %3)
  store i8 63, ptr %3, align 1
  %13 = getelementptr inbounds nuw i8, ptr %5, i64 37
  %14 = load i8, ptr %13, align 1
  %15 = icmp eq i8 %14, 63
  br i1 %15, label %SetInputMode.exit, label %16

16:                                               ; preds = %12
  store i8 63, ptr %13, align 1
  %17 = call fastcc zeroext i1 @WriteSubcommand(ptr noundef nonnull %5, i32 noundef 3, ptr noundef nonnull %3, i8 noundef zeroext 1, ptr noundef null)
  br label %SetInputMode.exit

SetInputMode.exit:                                ; preds = %12, %16
  call void @llvm.lifetime.end.p0(i64 1, ptr nonnull %3)
  br label %18

18:                                               ; preds = %9, %SetInputMode.exit, %2
  call void @SDL_RemoveHintCallback_REAL(ptr noundef nonnull @.str.20, ptr noundef nonnull @SDL_EnhancedReportsChanged, ptr noundef nonnull %5) #9
  %19 = getelementptr inbounds nuw i8, ptr %5, i64 32
  %20 = load i32, ptr %19, align 8
  %.off = add i32 %20, -1
  %switch = icmp ult i32 %.off, 2
  %.str.22..str.23 = select i1 %switch, ptr @.str.22, ptr @.str.23
  call void @SDL_RemoveHintCallback_REAL(ptr noundef nonnull %.str.22..str.23, ptr noundef nonnull @SDL_HomeLEDHintChanged, ptr noundef nonnull %5) #9
  call void @SDL_RemoveHintCallback_REAL(ptr noundef nonnull @.str.24, ptr noundef nonnull @SDL_PlayerLEDHintChanged, ptr noundef nonnull %5) #9
  %21 = getelementptr inbounds nuw i8, ptr %5, i64 8
  store ptr null, ptr %21, align 8
  %22 = getelementptr inbounds nuw i8, ptr %5, i64 153
  store i8 0, ptr %22, align 1
  %23 = getelementptr inbounds nuw i8, ptr %5, i64 52
  store i8 0, ptr %23, align 4
  %24 = getelementptr inbounds nuw i8, ptr %5, i64 53
  store i8 0, ptr %24, align 1
  ret void
}